target datalayout = "e-m:e-p270:32:32-p271:32:32-p272:64:64-i64:64-i128:128-f80:128-n8:16:32:64-S128"
target triple = "x86_64-pc-linux-gnu"

%struct.stat = type { i64, i64, i64, i32, i32, i32, i32, i64, i64, i64, i64, %struct.timespec, %struct.timespec, %struct.timespec, [3 x i64] }
%struct.timespec = type { i64, i64 }

@.str.8 = private unnamed_addr constant [20 x i8] c"unable to stat '%s'\00", align 1

; Function Attrs: nounwind uwtable
define dso_local i32 @add_file_to_index(ptr noundef %0, ptr noundef %1, i32 noundef %2) #0 {
  %4 = alloca ptr, align 8
  %5 = alloca ptr, align 8
  %6 = alloca i32, align 4
  %7 = alloca %struct.stat, align 8
  store ptr %0, ptr %4, align 8, !tbaa !4
  store ptr %1, ptr %5, align 8, !tbaa !11
  store i32 %2, ptr %6, align 4, !tbaa !9
  call void @llvm.lifetime.start.p0(i64 144, ptr %7) #12
  %8 = load ptr, ptr %5, align 8, !tbaa !11
  %9 = call i32 @lstat64(ptr noundef %8, ptr noundef %7) #12
  %10 = icmp ne i32 %9, 0
  br i1 %10, label %11, label %14

11:                                               ; preds = %3
  %12 = call ptr @_(ptr noundef @.str.8)
  %13 = load ptr, ptr %5, align 8, !tbaa !11
  call void (ptr, ...) @die_errno(ptr noundef %12, ptr noundef %13) #14
  unreachable

14:                                               ; preds = %3
  %15 = load ptr, ptr %4, align 8, !tbaa !4
  %16 = load ptr, ptr %5, align 8, !tbaa !11
  %17 = load i32, ptr %6, align 4, !tbaa !9
  %18 = call i32 @add_to_index(ptr noundef %15, ptr noundef %16, ptr noundef %7, i32 noundef %17)
  call void @llvm.lifetime.end.p0(i64 144, ptr %7) #12
  ret i32 %18
}