; Function Attrs: nounwind uwtable
define dso_local range(i32 -1, 1) i32 @add_file_to_index(ptr noundef %0, ptr noundef %1, i32 noundef %2) local_unnamed_addr #0 {
  %4 = alloca %struct.stat, align 8
  call void @llvm.lifetime.start.p0(i64 144, ptr nonnull %4) #30
  %5 = call i32 @lstat64(ptr noundef %1, ptr noundef nonnull %4) #30
  %.not = icmp eq i32 %5, 0
  br i1 %.not, label %8, label %6

6:                                                ; preds = %3
  %7 = tail call fastcc ptr @_(ptr noundef nonnull @.str.8)
  tail call void (ptr, ...) @die_errno(ptr noundef %7, ptr noundef %1) #31
  unreachable

8:                                                ; preds = %3
  %9 = call i32 @add_to_index(ptr noundef %0, ptr noundef %1, ptr noundef nonnull %4, i32 noundef %2)
  call void @llvm.lifetime.end.p0(i64 144, ptr nonnull %4) #30
  ret i32 %9
}